; Function Attrs: nounwind uwtable
define internal fastcc i32 @evp_pkey_ctx_set_md(ptr noundef %0, ptr noundef %1, i32 noundef range(i32 0, 2) %2, i32 noundef range(i32 2048, 49649) %3, i32 noundef range(i32 1, 4100) %4) unnamed_addr #0 {
  %6 = alloca [2 x %struct.ossl_param_st], align 16
  %7 = alloca %struct.ossl_param_st, align 8
  call void @llvm.lifetime.start.p0(i64 80, ptr nonnull %6) #10
  %8 = icmp eq ptr %0, null
  br i1 %8, label %13, label %9

9:                                                ; preds = %5
  %10 = load i32, ptr %0, align 8, !tbaa !15
  %11 = and i32 %10, %3
  %12 = icmp eq i32 %11, 0
  br i1 %12, label %13, label %14

13:                                               ; preds = %9, %5
  tail call void @ERR_new() #10
  tail call void @ERR_set_debug(ptr noundef nonnull @.str, i32 noundef 944, ptr noundef nonnull @__func__.evp_pkey_ctx_set_md) #10
  tail call void (i32, i32, ptr, ...) @ERR_set_error(i32 noundef 6, i32 noundef 147, ptr noundef null) #10
  br label %EVP_PKEY_CTX_ctrl.exit

14:                                               ; preds = %9
  %.not = icmp eq i32 %2, 0
  br i1 %.not, label %29, label %15

15:                                               ; preds = %14
  %16 = tail call i32 @ERR_set_mark() #10
  %17 = tail call fastcc i32 @evp_pkey_ctx_store_cached_data(ptr noundef nonnull %0, i32 noundef -1, i32 noundef %3, i32 noundef %4, ptr noundef null, ptr noundef %1, i64 noundef 0)
  %18 = icmp eq i32 %17, -2
  br i1 %18, label %19, label %21

19:                                               ; preds = %15
  %20 = tail call i32 @ERR_pop_to_mark() #10
  br label %27

21:                                               ; preds = %15
  %22 = tail call i32 @ERR_clear_last_mark() #10
  %23 = icmp slt i32 %17, 1
  br i1 %23, label %EVP_PKEY_CTX_ctrl.exit, label %24

24:                                               ; preds = %21
  %25 = load i32, ptr %0, align 8, !tbaa !15
  %26 = icmp eq i32 %25, 0
  br i1 %26, label %EVP_PKEY_CTX_ctrl.exit, label %27

27:                                               ; preds = %24, %19
  %28 = tail call fastcc i32 @evp_pkey_ctx_ctrl_int(ptr noundef nonnull %0, i32 noundef -1, i32 noundef %3, i32 noundef %4, i32 noundef 0, ptr noundef %1)
  br label %EVP_PKEY_CTX_ctrl.exit

29:                                               ; preds = %14
  %30 = icmp eq ptr %1, null
  br i1 %30, label %33, label %31

31:                                               ; preds = %29
  %32 = tail call ptr @EVP_MD_get0_name(ptr noundef nonnull %1) #10
  br label %33

33:                                               ; preds = %29, %31
  %.0 = phi ptr [ %32, %31 ], [ @.str.15, %29 ]
  %34 = getelementptr inbounds nuw i8, ptr %6, i64 40
  call void @OSSL_PARAM_construct_utf8_string(ptr dead_on_unwind nonnull writable sret(%struct.ossl_param_st) align 8 %6, ptr noundef nonnull @.str.1, ptr noundef %.0, i64 noundef 0) #10
  call void @llvm.lifetime.start.p0(i64 40, ptr nonnull %7) #10
  call void @OSSL_PARAM_construct_end(ptr dead_on_unwind nonnull writable sret(%struct.ossl_param_st) align 8 %7) #10
  call void @llvm.memcpy.p0.p0.i64(ptr noundef nonnull align 8 dereferenceable(40) %34, ptr noundef nonnull align 8 dereferenceable(40) %7, i64 40, i1 false), !tbaa.struct !98
  call void @llvm.lifetime.end.p0(i64 40, ptr nonnull %7) #10
  %35 = call i32 @EVP_PKEY_CTX_set_params(ptr noundef nonnull %0, ptr noundef nonnull %6)
  br label %EVP_PKEY_CTX_ctrl.exit

EVP_PKEY_CTX_ctrl.exit:                           ; preds = %27, %24, %21, %33, %13
  %.015 = phi i32 [ -2, %13 ], [ %35, %33 ], [ %28, %27 ], [ 1, %24 ], [ %17, %21 ]
  call void @llvm.lifetime.end.p0(i64 80, ptr nonnull %6) #10
  ret i32 %.015
}